target datalayout = "e-m:e-p270:32:32-p271:32:32-p272:64:64-i64:64-i128:128-f80:128-n8:16:32:64-S128"
target triple = "x86_64-unknown-linux-gnu"

%"class.__gnu_cxx::__normal_iterator.0" = type { ptr }
%"class.facebook::velox::common::hll::SparseHll" = type <{ %"class.std::vector", i32, [4 x i8] }>
%"class.std::vector" = type { %"struct.std::_Vector_base" }
%"struct.std::_Vector_base" = type { %"struct.std::_Vector_base<unsigned int, facebook::velox::StlAllocator<unsigned int>>::_Vector_impl" }
%"struct.std::_Vector_base<unsigned int, facebook::velox::StlAllocator<unsigned int>>::_Vector_impl" = type { %"struct.facebook::velox::StlAllocator", %"struct.std::_Vector_base<unsigned int, facebook::velox::StlAllocator<unsigned int>>::_Vector_impl_data" }
%"struct.facebook::velox::StlAllocator" = type { ptr }
%"struct.std::_Vector_base<unsigned int, facebook::velox::StlAllocator<unsigned int>>::_Vector_impl_data" = type { ptr, ptr, ptr }
%"struct.facebook::velox::common::OutputByteStream" = type <{ ptr, i32, [4 x i8] }>

; Function Attrs: mustprogress nounwind uwtable
define linkonce_odr noundef nonnull align 8 dereferenceable(8) ptr @_ZNK9__gnu_cxx17__normal_iteratorIPKjSt6vectorIjN8facebook5velox12StlAllocatorIjEEEE4baseEv(ptr noundef nonnull align 8 dereferenceable(8) %this) #1 comdat align 2 {
entry:
  %this.addr = alloca ptr, align 8
  store ptr %this, ptr %this.addr, align 8
  %this1 = load ptr, ptr %this.addr, align 8
  %_M_current = getelementptr inbounds %"class.__gnu_cxx::__normal_iterator.0", ptr %this1, i32 0, i32 0
  ret ptr %_M_current
}

; Function Attrs: mustprogress nounwind uwtable
define linkonce_odr void @_ZN9__gnu_cxx17__normal_iteratorIPKjSt6vectorIjN8facebook5velox12StlAllocatorIjEEEEC2ERKS2_(ptr noundef nonnull align 8 dereferenceable(8) %this, ptr noundef nonnull align 8 dereferenceable(8) %__i) unnamed_addr #1 comdat align 2 {
entry:
  %this.addr = alloca ptr, align 8
  %__i.addr = alloca ptr, align 8
  store ptr %this, ptr %this.addr, align 8
  store ptr %__i, ptr %__i.addr, align 8
  %this1 = load ptr, ptr %this.addr, align 8
  %_M_current = getelementptr inbounds %"class.__gnu_cxx::__normal_iterator.0", ptr %this1, i32 0, i32 0
  %0 = load ptr, ptr %__i.addr, align 8
  %1 = load ptr, ptr %0, align 8
  store ptr %1, ptr %_M_current, align 8
  ret void
}

; Function Attrs: mustprogress nounwind uwtable
define linkonce_odr noundef nonnull align 8 dereferenceable(8) ptr @_ZN9__gnu_cxx17__normal_iteratorIPKjSt6vectorIjN8facebook5velox12StlAllocatorIjEEEEppEv(ptr noundef nonnull align 8 dereferenceable(8) %this) #1 comdat align 2 {
entry:
  %this.addr = alloca ptr, align 8
  store ptr %this, ptr %this.addr, align 8
  %this1 = load ptr, ptr %this.addr, align 8
  %_M_current = getelementptr inbounds %"class.__gnu_cxx::__normal_iterator.0", ptr %this1, i32 0, i32 0
  %0 = load ptr, ptr %_M_current, align 8
  %incdec.ptr = getelementptr inbounds i32, ptr %0, i32 1
  store ptr %incdec.ptr, ptr %_M_current, align 8
  ret ptr %this1
}

; Function Attrs: mustprogress nounwind uwtable
define linkonce_odr void @_ZN8facebook5velox6common16OutputByteStream9appendOneIjEEvT_(ptr noundef nonnull align 8 dereferenceable(12) %this, i32 noundef %value) #1 comdat align 2 {
entry:
  %this.addr = alloca ptr, align 8
  %value.addr = alloca i32, align 4
  store ptr %this, ptr %this.addr, align 8
  store i32 %value, ptr %value.addr, align 4
  %this1 = load ptr, ptr %this.addr, align 8
  %0 = load i32, ptr %value.addr, align 4
  %data_ = getelementptr inbounds %"struct.facebook::velox::common::OutputByteStream", ptr %this1, i32 0, i32 0
  %1 = load ptr, ptr %data_, align 8
  %offset_ = getelementptr inbounds %"struct.facebook::velox::common::OutputByteStream", ptr %this1, i32 0, i32 1
  %2 = load i32, ptr %offset_, align 8
  %idx.ext = sext i32 %2 to i64
  %add.ptr = getelementptr inbounds i8, ptr %1, i64 %idx.ext
  store i32 %0, ptr %add.ptr, align 4
  %offset_2 = getelementptr inbounds %"struct.facebook::velox::common::OutputByteStream", ptr %this1, i32 0, i32 1
  %3 = load i32, ptr %offset_2, align 8
  %conv = sext i32 %3 to i64
  %add = add i64 %conv, 4
  %conv3 = trunc i64 %add to i32
  store i32 %conv3, ptr %offset_2, align 8
  ret void
}

; Function Attrs: mustprogress nounwind uwtable
define linkonce_odr noundef nonnull align 4 dereferenceable(4) ptr @_ZNK9__gnu_cxx17__normal_iteratorIPKjSt6vectorIjN8facebook5velox12StlAllocatorIjEEEEdeEv(ptr noundef nonnull align 8 dereferenceable(8) %this) #1 comdat align 2 {
entry:
  %this.addr = alloca ptr, align 8
  store ptr %this, ptr %this.addr, align 8
  %this1 = load ptr, ptr %this.addr, align 8
  %_M_current = getelementptr inbounds %"class.__gnu_cxx::__normal_iterator.0", ptr %this1, i32 0, i32 0
  %0 = load ptr, ptr %_M_current, align 8
  ret ptr %0
}

; Function Attrs: mustprogress nounwind uwtable
define linkonce_odr noundef zeroext i1 @_ZN9__gnu_cxxneIPKjSt6vectorIjN8facebook5velox12StlAllocatorIjEEEEEbRKNS_17__normal_iteratorIT_T0_EESE_(ptr noundef nonnull align 8 dereferenceable(8) %__lhs, ptr noundef nonnull align 8 dereferenceable(8) %__rhs) #1 comdat {
entry:
  %__lhs.addr = alloca ptr, align 8
  %__rhs.addr = alloca ptr, align 8
  store ptr %__lhs, ptr %__lhs.addr, align 8
  store ptr %__rhs, ptr %__rhs.addr, align 8
  %0 = load ptr, ptr %__lhs.addr, align 8
  %call = call noundef nonnull align 8 dereferenceable(8) ptr @_ZNK9__gnu_cxx17__normal_iteratorIPKjSt6vectorIjN8facebook5velox12StlAllocatorIjEEEE4baseEv(ptr noundef nonnull align 8 dereferenceable(8) %0) #11
  %1 = load ptr, ptr %call, align 8
  %2 = load ptr, ptr %__rhs.addr, align 8
  %call1 = call noundef nonnull align 8 dereferenceable(8) ptr @_ZNK9__gnu_cxx17__normal_iteratorIPKjSt6vectorIjN8facebook5velox12StlAllocatorIjEEEE4baseEv(ptr noundef nonnull align 8 dereferenceable(8) %2) #11
  %3 = load ptr, ptr %call1, align 8
  %cmp = icmp ne ptr %1, %3
  ret i1 %cmp
}

; Function Attrs: mustprogress nounwind uwtable
define linkonce_odr ptr @_ZNKSt6vectorIjN8facebook5velox12StlAllocatorIjEEE3endEv(ptr noundef nonnull align 8 dereferenceable(32) %this) #1 comdat align 2 {
entry:
  %retval = alloca %"class.__gnu_cxx::__normal_iterator.0", align 8
  %this.addr = alloca ptr, align 8
  store ptr %this, ptr %this.addr, align 8
  %this1 = load ptr, ptr %this.addr, align 8
  %_M_impl = getelementptr inbounds %"struct.std::_Vector_base", ptr %this1, i32 0, i32 0
  %add.ptr = getelementptr inbounds i8, ptr %_M_impl, i64 8
  %_M_finish = getelementptr inbounds %"struct.std::_Vector_base<unsigned int, facebook::velox::StlAllocator<unsigned int>>::_Vector_impl_data", ptr %add.ptr, i32 0, i32 1
  call void @_ZN9__gnu_cxx17__normal_iteratorIPKjSt6vectorIjN8facebook5velox12StlAllocatorIjEEEEC2ERKS2_(ptr noundef nonnull align 8 dereferenceable(8) %retval, ptr noundef nonnull align 8 dereferenceable(8) %_M_finish) #11
  %coerce.dive = getelementptr inbounds %"class.__gnu_cxx::__normal_iterator.0", ptr %retval, i32 0, i32 0
  %0 = load ptr, ptr %coerce.dive, align 8
  ret ptr %0
}

; Function Attrs: mustprogress nounwind uwtable
define linkonce_odr ptr @_ZNKSt6vectorIjN8facebook5velox12StlAllocatorIjEEE5beginEv(ptr noundef nonnull align 8 dereferenceable(32) %this) #1 comdat align 2 {
entry:
  %retval = alloca %"class.__gnu_cxx::__normal_iterator.0", align 8
  %this.addr = alloca ptr, align 8
  store ptr %this, ptr %this.addr, align 8
  %this1 = load ptr, ptr %this.addr, align 8
  %_M_impl = getelementptr inbounds %"struct.std::_Vector_base", ptr %this1, i32 0, i32 0
  %add.ptr = getelementptr inbounds i8, ptr %_M_impl, i64 8
  %_M_start = getelementptr inbounds %"struct.std::_Vector_base<unsigned int, facebook::velox::StlAllocator<unsigned int>>::_Vector_impl_data", ptr %add.ptr, i32 0, i32 0
  call void @_ZN9__gnu_cxx17__normal_iteratorIPKjSt6vectorIjN8facebook5velox12StlAllocatorIjEEEEC2ERKS2_(ptr noundef nonnull align 8 dereferenceable(8) %retval, ptr noundef nonnull align 8 dereferenceable(8) %_M_start) #11
  %coerce.dive = getelementptr inbounds %"class.__gnu_cxx::__normal_iterator.0", ptr %retval, i32 0, i32 0
  %0 = load ptr, ptr %coerce.dive, align 8
  ret ptr %0
}

; Function Attrs: mustprogress nounwind uwtable
define linkonce_odr void @_ZN8facebook5velox6common16OutputByteStream9appendOneIsEEvT_(ptr noundef nonnull align 8 dereferenceable(12) %this, i16 noundef signext %value) #1 comdat align 2 {
entry:
  %this.addr = alloca ptr, align 8
  %value.addr = alloca i16, align 2
  store ptr %this, ptr %this.addr, align 8
  store i16 %value, ptr %value.addr, align 2
  %this1 = load ptr, ptr %this.addr, align 8
  %0 = load i16, ptr %value.addr, align 2
  %data_ = getelementptr inbounds %"struct.facebook::velox::common::OutputByteStream", ptr %this1, i32 0, i32 0
  %1 = load ptr, ptr %data_, align 8
  %offset_ = getelementptr inbounds %"struct.facebook::velox::common::OutputByteStream", ptr %this1, i32 0, i32 1
  %2 = load i32, ptr %offset_, align 8
  %idx.ext = sext i32 %2 to i64
  %add.ptr = getelementptr inbounds i8, ptr %1, i64 %idx.ext
  store i16 %0, ptr %add.ptr, align 2
  %offset_2 = getelementptr inbounds %"struct.facebook::velox::common::OutputByteStream", ptr %this1, i32 0, i32 1
  %3 = load i32, ptr %offset_2, align 8
  %conv = sext i32 %3 to i64
  %add = add i64 %conv, 2
  %conv3 = trunc i64 %add to i32
  store i32 %conv3, ptr %offset_2, align 8
  ret void
}

; Function Attrs: mustprogress nounwind uwtable
define linkonce_odr noundef i64 @_ZNKSt6vectorIjN8facebook5velox12StlAllocatorIjEEE4sizeEv(ptr noundef nonnull align 8 dereferenceable(32) %this) #1 comdat align 2 {
entry:
  %this.addr = alloca ptr, align 8
  store ptr %this, ptr %this.addr, align 8
  %this1 = load ptr, ptr %this.addr, align 8
  %_M_impl = getelementptr inbounds %"struct.std::_Vector_base", ptr %this1, i32 0, i32 0
  %add.ptr = getelementptr inbounds i8, ptr %_M_impl, i64 8
  %_M_finish = getelementptr inbounds %"struct.std::_Vector_base<unsigned int, facebook::velox::StlAllocator<unsigned int>>::_Vector_impl_data", ptr %add.ptr, i32 0, i32 1
  %0 = load ptr, ptr %_M_finish, align 8
  %_M_impl2 = getelementptr inbounds %"struct.std::_Vector_base", ptr %this1, i32 0, i32 0
  %add.ptr3 = getelementptr inbounds i8, ptr %_M_impl2, i64 8
  %_M_start = getelementptr inbounds %"struct.std::_Vector_base<unsigned int, facebook::velox::StlAllocator<unsigned int>>::_Vector_impl_data", ptr %add.ptr3, i32 0, i32 0
  %1 = load ptr, ptr %_M_start, align 8
  %sub.ptr.lhs.cast = ptrtoint ptr %0 to i64
  %sub.ptr.rhs.cast = ptrtoint ptr %1 to i64
  %sub.ptr.sub = sub i64 %sub.ptr.lhs.cast, %sub.ptr.rhs.cast
  %sub.ptr.div = sdiv exact i64 %sub.ptr.sub, 4
  ret i64 %sub.ptr.div
}

; Function Attrs: mustprogress nounwind uwtable
define linkonce_odr void @_ZN8facebook5velox6common16OutputByteStream9appendOneIaEEvT_(ptr noundef nonnull align 8 dereferenceable(12) %this, i8 noundef signext %value) #1 comdat align 2 {
entry:
  %this.addr = alloca ptr, align 8
  %value.addr = alloca i8, align 1
  store ptr %this, ptr %this.addr, align 8
  store i8 %value, ptr %value.addr, align 1
  %this1 = load ptr, ptr %this.addr, align 8
  %0 = load i8, ptr %value.addr, align 1
  %data_ = getelementptr inbounds %"struct.facebook::velox::common::OutputByteStream", ptr %this1, i32 0, i32 0
  %1 = load ptr, ptr %data_, align 8
  %offset_ = getelementptr inbounds %"struct.facebook::velox::common::OutputByteStream", ptr %this1, i32 0, i32 1
  %2 = load i32, ptr %offset_, align 8
  %idx.ext = sext i32 %2 to i64
  %add.ptr = getelementptr inbounds i8, ptr %1, i64 %idx.ext
  store i8 %0, ptr %add.ptr, align 1
  %offset_2 = getelementptr inbounds %"struct.facebook::velox::common::OutputByteStream", ptr %this1, i32 0, i32 1
  %3 = load i32, ptr %offset_2, align 8
  %conv = sext i32 %3 to i64
  %add = add i64 %conv, 1
  %conv3 = trunc i64 %add to i32
  store i32 %conv3, ptr %offset_2, align 8
  ret void
}

; Function Attrs: mustprogress nounwind uwtable
define linkonce_odr void @_ZN8facebook5velox6common16OutputByteStreamC2EPci(ptr noundef nonnull align 8 dereferenceable(12) %this, ptr noundef %data, i32 noundef %offset) unnamed_addr #1 comdat align 2 {
entry:
  %this.addr = alloca ptr, align 8
  %data.addr = alloca ptr, align 8
  %offset.addr = alloca i32, align 4
  store ptr %this, ptr %this.addr, align 8
  store ptr %data, ptr %data.addr, align 8
  store i32 %offset, ptr %offset.addr, align 4
  %this1 = load ptr, ptr %this.addr, align 8
  %data_ = getelementptr inbounds %"struct.facebook::velox::common::OutputByteStream", ptr %this1, i32 0, i32 0
  %0 = load ptr, ptr %data.addr, align 8
  store ptr %0, ptr %data_, align 8
  %offset_ = getelementptr inbounds %"struct.facebook::velox::common::OutputByteStream", ptr %this1, i32 0, i32 1
  %1 = load i32, ptr %offset.addr, align 4
  store i32 %1, ptr %offset_, align 8
  ret void
}

; Function Attrs: mustprogress uwtable
define void @_ZNK8facebook5velox6common3hll9SparseHll9serializeEaPc(ptr noundef nonnull align 8 dereferenceable(36) %this, i8 noundef signext %indexBitLength, ptr noundef %output) #0 align 2 {
entry:
  %this.addr = alloca ptr, align 8
  %indexBitLength.addr = alloca i8, align 1
  %output.addr = alloca ptr, align 8
  %stream = alloca %"struct.facebook::velox::common::OutputByteStream", align 8
  %__range3 = alloca ptr, align 8
  %__begin3 = alloca %"class.__gnu_cxx::__normal_iterator.0", align 8
  %__end3 = alloca %"class.__gnu_cxx::__normal_iterator.0", align 8
  %entry7 = alloca i32, align 4
  store ptr %this, ptr %this.addr, align 8
  store i8 %indexBitLength, ptr %indexBitLength.addr, align 1
  store ptr %output, ptr %output.addr, align 8
  %this1 = load ptr, ptr %this.addr, align 8
  %0 = load ptr, ptr %output.addr, align 8
  call void @_ZN8facebook5velox6common16OutputByteStreamC2EPci(ptr noundef nonnull align 8 dereferenceable(12) %stream, ptr noundef %0, i32 noundef 0)
  call void @_ZN8facebook5velox6common16OutputByteStream9appendOneIaEEvT_(ptr noundef nonnull align 8 dereferenceable(12) %stream, i8 noundef signext 2)
  %1 = load i8, ptr %indexBitLength.addr, align 1
  call void @_ZN8facebook5velox6common16OutputByteStream9appendOneIaEEvT_(ptr noundef nonnull align 8 dereferenceable(12) %stream, i8 noundef signext %1)
  %entries_ = getelementptr inbounds %"class.facebook::velox::common::hll::SparseHll", ptr %this1, i32 0, i32 0
  %call = call noundef i64 @_ZNKSt6vectorIjN8facebook5velox12StlAllocatorIjEEE4sizeEv(ptr noundef nonnull align 8 dereferenceable(32) %entries_) #11
  %conv = trunc i64 %call to i16
  call void @_ZN8facebook5velox6common16OutputByteStream9appendOneIsEEvT_(ptr noundef nonnull align 8 dereferenceable(12) %stream, i16 noundef signext %conv)
  %entries_2 = getelementptr inbounds %"class.facebook::velox::common::hll::SparseHll", ptr %this1, i32 0, i32 0
  store ptr %entries_2, ptr %__range3, align 8
  %2 = load ptr, ptr %__range3, align 8
  %call3 = call ptr @_ZNKSt6vectorIjN8facebook5velox12StlAllocatorIjEEE5beginEv(ptr noundef nonnull align 8 dereferenceable(32) %2) #11
  %coerce.dive = getelementptr inbounds %"class.__gnu_cxx::__normal_iterator.0", ptr %__begin3, i32 0, i32 0
  store ptr %call3, ptr %coerce.dive, align 8
  %3 = load ptr, ptr %__range3, align 8
  %call4 = call ptr @_ZNKSt6vectorIjN8facebook5velox12StlAllocatorIjEEE3endEv(ptr noundef nonnull align 8 dereferenceable(32) %3) #11
  %coerce.dive5 = getelementptr inbounds %"class.__gnu_cxx::__normal_iterator.0", ptr %__end3, i32 0, i32 0
  store ptr %call4, ptr %coerce.dive5, align 8
  br label %for.cond

for.cond:                                         ; preds = %for.inc, %entry
  %call6 = call noundef zeroext i1 @_ZN9__gnu_cxxneIPKjSt6vectorIjN8facebook5velox12StlAllocatorIjEEEEEbRKNS_17__normal_iteratorIT_T0_EESE_(ptr noundef nonnull align 8 dereferenceable(8) %__begin3, ptr noundef nonnull align 8 dereferenceable(8) %__end3) #11
  br i1 %call6, label %for.body, label %for.end

for.body:                                         ; preds = %for.cond
  %call8 = call noundef nonnull align 4 dereferenceable(4) ptr @_ZNK9__gnu_cxx17__normal_iteratorIPKjSt6vectorIjN8facebook5velox12StlAllocatorIjEEEEdeEv(ptr noundef nonnull align 8 dereferenceable(8) %__begin3) #11
  %4 = load i32, ptr %call8, align 4
  store i32 %4, ptr %entry7, align 4
  %5 = load i32, ptr %entry7, align 4
  call void @_ZN8facebook5velox6common16OutputByteStream9appendOneIjEEvT_(ptr noundef nonnull align 8 dereferenceable(12) %stream, i32 noundef %5)
  br label %for.inc

for.inc:                                          ; preds = %for.body
  %call9 = call noundef nonnull align 8 dereferenceable(8) ptr @_ZN9__gnu_cxx17__normal_iteratorIPKjSt6vectorIjN8facebook5velox12StlAllocatorIjEEEEppEv(ptr noundef nonnull align 8 dereferenceable(8) %__begin3) #11
  br label %for.cond

for.end:                                          ; preds = %for.cond
  ret void
}