; Function Attrs: mustprogress nofree norecurse nosync nounwind memory(read, argmem: readwrite, inaccessiblemem: none) uwtable
define void @_ZNK8facebook5velox6common3hll9SparseHll9serializeEaPc(ptr noundef nonnull readonly align 8 captures(none) dereferenceable(36) %this, i8 noundef signext %indexBitLength, ptr noundef writeonly captures(none) initializes((0, 4)) %output) local_unnamed_addr #4 align 2 {
entry:
  store i8 2, ptr %output, align 1
  %add.ptr.i5 = getelementptr inbounds nuw i8, ptr %output, i64 1
  store i8 %indexBitLength, ptr %add.ptr.i5, align 1
  %add.ptr.i7 = getelementptr inbounds nuw i8, ptr %this, i64 8
  %_M_finish.i = getelementptr inbounds nuw i8, ptr %this, i64 16
  %0 = load ptr, ptr %_M_finish.i, align 8
  %1 = load ptr, ptr %add.ptr.i7, align 8
  %sub.ptr.lhs.cast.i = ptrtoint ptr %0 to i64
  %sub.ptr.rhs.cast.i = ptrtoint ptr %1 to i64
  %sub.ptr.sub.i = sub i64 %sub.ptr.lhs.cast.i, %sub.ptr.rhs.cast.i
  %sub.ptr.div.i = lshr exact i64 %sub.ptr.sub.i, 2
  %conv = trunc i64 %sub.ptr.div.i to i16
  %add.ptr.i10 = getelementptr inbounds nuw i8, ptr %output, i64 2
  store i16 %conv, ptr %add.ptr.i10, align 2
  %2 = load ptr, ptr %add.ptr.i7, align 8
  %3 = load ptr, ptr %_M_finish.i, align 8
  %cmp.i.not30 = icmp eq ptr %2, %3
  br i1 %cmp.i.not30, label %for.end, label %for.body

for.body:                                         ; preds = %entry, %for.body
  %stream.sroa.5.032 = phi i32 [ %add.i17, %for.body ], [ 4, %entry ]
  %__begin3.sroa.0.031 = phi ptr [ %incdec.ptr.i, %for.body ], [ %2, %entry ]
  %4 = load i32, ptr %__begin3.sroa.0.031, align 4
  %idx.ext.i15 = sext i32 %stream.sroa.5.032 to i64
  %add.ptr.i16 = getelementptr inbounds i8, ptr %output, i64 %idx.ext.i15
  store i32 %4, ptr %add.ptr.i16, align 4
  %add.i17 = add i32 %stream.sroa.5.032, 4
  %incdec.ptr.i = getelementptr inbounds nuw i8, ptr %__begin3.sroa.0.031, i64 4
  %cmp.i.not = icmp eq ptr %incdec.ptr.i, %3
  br i1 %cmp.i.not, label %for.end, label %for.body

for.end:                                          ; preds = %for.body, %entry
  ret void
}